target datalayout = "e-m:e-p270:32:32-p271:32:32-p272:64:64-i64:64-i128:128-f80:128-n8:16:32:64-S128"
target triple = "x86_64-pc-linux-gnu"

; Function Attrs: mustprogress nounwind uwtable
define dso_local noundef zeroext i1 @_ZN5clang6interp15ByteCodeEmitter17emitNullMemberPtrEPKNS0_10DescriptorERKNS0_10SourceInfoE(ptr noundef nonnull align 8 dereferenceable(488) %0, ptr noundef %1, ptr noundef nonnull align 8 dereferenceable(8) %2) #0 align 2 {
  %4 = alloca ptr, align 8
  %5 = alloca ptr, align 8
  %6 = alloca ptr, align 8
  store ptr %0, ptr %4, align 8
  store ptr %1, ptr %5, align 8
  store ptr %2, ptr %6, align 8
  %7 = load ptr, ptr %4, align 8
  %8 = load ptr, ptr %6, align 8
  %9 = call noundef zeroext i1 @_ZN5clang6interp15ByteCodeEmitter6emitOpIJPKNS0_10DescriptorEEEEbNS0_6OpcodeEDpRKT_RKNS0_10SourceInfoE(ptr noundef nonnull align 8 dereferenceable(488) %7, i32 noundef 1126, ptr noundef nonnull align 8 dereferenceable(8) %5, ptr noundef nonnull align 8 dereferenceable(8) %8)
  ret i1 %9
}

; Function Attrs: mustprogress nounwind uwtable
define dso_local noundef zeroext i1 @_ZN5clang6interp15ByteCodeEmitter13emitNullFnPtrEPKNS0_10DescriptorERKNS0_10SourceInfoE(ptr noundef nonnull align 8 dereferenceable(488) %0, ptr noundef %1, ptr noundef nonnull align 8 dereferenceable(8) %2) #0 align 2 {
  %4 = alloca ptr, align 8
  %5 = alloca ptr, align 8
  %6 = alloca ptr, align 8
  store ptr %0, ptr %4, align 8
  store ptr %1, ptr %5, align 8
  store ptr %2, ptr %6, align 8
  %7 = load ptr, ptr %4, align 8
  %8 = load ptr, ptr %6, align 8
  %9 = call noundef zeroext i1 @_ZN5clang6interp15ByteCodeEmitter6emitOpIJPKNS0_10DescriptorEEEEbNS0_6OpcodeEDpRKT_RKNS0_10SourceInfoE(ptr noundef nonnull align 8 dereferenceable(488) %7, i32 noundef 1125, ptr noundef nonnull align 8 dereferenceable(8) %5, ptr noundef nonnull align 8 dereferenceable(8) %8)
  ret i1 %9
}

; Function Attrs: mustprogress nounwind uwtable
define dso_local noundef zeroext i1 @_ZN5clang6interp15ByteCodeEmitter11emitNullPtrEPKNS0_10DescriptorERKNS0_10SourceInfoE(ptr noundef nonnull align 8 dereferenceable(488) %0, ptr noundef %1, ptr noundef nonnull align 8 dereferenceable(8) %2) #0 align 2 {
  %4 = alloca ptr, align 8
  %5 = alloca ptr, align 8
  %6 = alloca ptr, align 8
  store ptr %0, ptr %4, align 8
  store ptr %1, ptr %5, align 8
  store ptr %2, ptr %6, align 8
  %7 = load ptr, ptr %4, align 8
  %8 = load ptr, ptr %6, align 8
  %9 = call noundef zeroext i1 @_ZN5clang6interp15ByteCodeEmitter6emitOpIJPKNS0_10DescriptorEEEEbNS0_6OpcodeEDpRKT_RKNS0_10SourceInfoE(ptr noundef nonnull align 8 dereferenceable(488) %7, i32 noundef 1124, ptr noundef nonnull align 8 dereferenceable(8) %5, ptr noundef nonnull align 8 dereferenceable(8) %8)
  ret i1 %9
}

; Function Attrs: mustprogress nounwind uwtable
define dso_local noundef zeroext i1 @_ZN5clang6interp15ByteCodeEmitter8emitNullENS0_8PrimTypeEPKNS0_10DescriptorERKNS0_10SourceInfoE(ptr noundef nonnull align 8 dereferenceable(488) %0, i32 noundef %1, ptr noundef %2, ptr noundef nonnull align 8 dereferenceable(8) %3) #0 align 2 {
  %5 = alloca i1, align 1
  %6 = alloca ptr, align 8
  %7 = alloca i32, align 4
  %8 = alloca ptr, align 8
  %9 = alloca ptr, align 8
  store ptr %0, ptr %6, align 8
  store i32 %1, ptr %7, align 4
  store ptr %2, ptr %8, align 8
  store ptr %3, ptr %9, align 8
  %10 = load ptr, ptr %6, align 8
  %11 = load i32, ptr %7, align 4
  switch i32 %11, label %24 [
    i32 12, label %12
    i32 13, label %16
    i32 14, label %20
  ]

12:                                               ; preds = %4
  %13 = load ptr, ptr %8, align 8
  %14 = load ptr, ptr %9, align 8
  %15 = call noundef zeroext i1 @_ZN5clang6interp15ByteCodeEmitter11emitNullPtrEPKNS0_10DescriptorERKNS0_10SourceInfoE(ptr noundef nonnull align 8 dereferenceable(488) %10, ptr noundef %13, ptr noundef nonnull align 8 dereferenceable(8) %14)
  store i1 %15, ptr %5, align 1
  br label %25

16:                                               ; preds = %4
  %17 = load ptr, ptr %8, align 8
  %18 = load ptr, ptr %9, align 8
  %19 = call noundef zeroext i1 @_ZN5clang6interp15ByteCodeEmitter13emitNullFnPtrEPKNS0_10DescriptorERKNS0_10SourceInfoE(ptr noundef nonnull align 8 dereferenceable(488) %10, ptr noundef %17, ptr noundef nonnull align 8 dereferenceable(8) %18)
  store i1 %19, ptr %5, align 1
  br label %25

20:                                               ; preds = %4
  %21 = load ptr, ptr %8, align 8
  %22 = load ptr, ptr %9, align 8
  %23 = call noundef zeroext i1 @_ZN5clang6interp15ByteCodeEmitter17emitNullMemberPtrEPKNS0_10DescriptorERKNS0_10SourceInfoE(ptr noundef nonnull align 8 dereferenceable(488) %10, ptr noundef %21, ptr noundef nonnull align 8 dereferenceable(8) %22)
  store i1 %23, ptr %5, align 1
  br label %25

24:                                               ; preds = %4
  unreachable

25:                                               ; preds = %20, %16, %12
  %26 = load i1, ptr %5, align 1
  ret i1 %26
}